; ModuleID = '33/2520.c'
source_filename = "33/2520.c"
target datalayout = "e-m:e-p270:32:32-p271:32:32-p272:64:64-i64:64-f80:128-n8:16:32:64-S128"
target triple = "x86_64-pc-linux-gnu"

@.str = private unnamed_addr constant [4 x i8] c"%s\0A\00", align 1

; Function Attrs: noinline nounwind uwtable
define dso_local i32 @main() #0 {
  %1 = alloca i32, align 4
  %2 = alloca i32, align 4
  %3 = alloca i32, align 4
  %4 = alloca [256 x i8], align 16
  %5 = alloca i8*, align 8
  %6 = alloca i8*, align 8
  %7 = alloca [256 x i8], align 16
  %8 = alloca i8*, align 8
  store i32 0, i32* %1, align 4
  %9 = getelementptr inbounds [256 x i8], [256 x i8]* %4, i64 0, i64 0
  %10 = call i32 (i8*, ...) bitcast (i32 (...)* @gets to i32 (i8*, ...)*)(i8* %9)
  %11 = getelementptr inbounds [256 x i8], [256 x i8]* %4, i64 0, i64 0
  %12 = call i32 @atoi(i8* %11) #4
  store i32 %12, i32* %2, align 4
  store i32 1, i32* %3, align 4
  br label %13

13:                                               ; preds = %76, %0
  %14 = load i32, i32* %3, align 4
  %15 = load i32, i32* %2, align 4
  %16 = icmp sle i32 %14, %15
  br i1 %16, label %17, label %79

17:                                               ; preds = %13
  %18 = getelementptr inbounds [256 x i8], [256 x i8]* %4, i64 0, i64 0
  %19 = call i32 (i8*, ...) bitcast (i32 (...)* @gets to i32 (i8*, ...)*)(i8* %18)
  %20 = getelementptr inbounds [256 x i8], [256 x i8]* %4, i64 0, i64 0
  store i8* %20, i8** %5, align 8
  %21 = bitcast [256 x i8]* %7 to i8*
  call void @llvm.memset.p0i8.i64(i8* align 16 %21, i8 0, i64 256, i1 false)
  %22 = getelementptr inbounds [256 x i8], [256 x i8]* %7, i64 0, i64 0
  store i8* %22, i8** %8, align 8
  %23 = load i8*, i8** %5, align 8
  store i8* %23, i8** %6, align 8
  %24 = load i8*, i8** %6, align 8
  store i8* %24, i8** %5, align 8
  br label %25

25:                                               ; preds = %70, %17
  %26 = load i8*, i8** %5, align 8
  %27 = load i8, i8* %26, align 1
  %28 = sext i8 %27 to i32
  %29 = icmp ne i32 %28, 0
  br i1 %29, label %30, label %73

30:                                               ; preds = %25
  %31 = load i8*, i8** %5, align 8
  %32 = load i8, i8* %31, align 1
  %33 = sext i8 %32 to i32
  %34 = icmp eq i32 %33, 65
  br i1 %34, label %35, label %39

35:                                               ; preds = %30
  %36 = load i8*, i8** %8, align 8
  store i8 84, i8* %36, align 1
  %37 = load i8*, i8** %8, align 8
  %38 = getelementptr inbounds i8, i8* %37, i32 1
  store i8* %38, i8** %8, align 8
  br label %69

39:                                               ; preds = %30
  %40 = load i8*, i8** %5, align 8
  %41 = load i8, i8* %40, align 1
  %42 = sext i8 %41 to i32
  %43 = icmp eq i32 %42, 84
  br i1 %43, label %44, label %48

44:                                               ; preds = %39
  %45 = load i8*, i8** %8, align 8
  store i8 65, i8* %45, align 1
  %46 = load i8*, i8** %8, align 8
  %47 = getelementptr inbounds i8, i8* %46, i32 1
  store i8* %47, i8** %8, align 8
  br label %68

48:                                               ; preds = %39
  %49 = load i8*, i8** %5, align 8
  %50 = load i8, i8* %49, align 1
  %51 = sext i8 %50 to i32
  %52 = icmp eq i32 %51, 71
  br i1 %52, label %53, label %57

53:                                               ; preds = %48
  %54 = load i8*, i8** %8, align 8
  store i8 67, i8* %54, align 1
  %55 = load i8*, i8** %8, align 8
  %56 = getelementptr inbounds i8, i8* %55, i32 1
  store i8* %56, i8** %8, align 8
  br label %67

57:                                               ; preds = %48
  %58 = load i8*, i8** %5, align 8
  %59 = load i8, i8* %58, align 1
  %60 = sext i8 %59 to i32
  %61 = icmp eq i32 %60, 67
  br i1 %61, label %62, label %66

62:                                               ; preds = %57
  %63 = load i8*, i8** %8, align 8
  store i8 71, i8* %63, align 1
  %64 = load i8*, i8** %8, align 8
  %65 = getelementptr inbounds i8, i8* %64, i32 1
  store i8* %65, i8** %8, align 8
  br label %66

66:                                               ; preds = %62, %57
  br label %67

67:                                               ; preds = %66, %53
  br label %68

68:                                               ; preds = %67, %44
  br label %69

69:                                               ; preds = %68, %35
  br label %70

70:                                               ; preds = %69
  %71 = load i8*, i8** %5, align 8
  %72 = getelementptr inbounds i8, i8* %71, i32 1
  store i8* %72, i8** %5, align 8
  br label %25

73:                                               ; preds = %25
  %74 = getelementptr inbounds [256 x i8], [256 x i8]* %7, i64 0, i64 0
  %75 = call i32 (i8*, ...) @printf(i8* getelementptr inbounds ([4 x i8], [4 x i8]* @.str, i64 0, i64 0), i8* %74)
  br label %76

76:                                               ; preds = %73
  %77 = load i32, i32* %3, align 4
  %78 = add nsw i32 %77, 1
  store i32 %78, i32* %3, align 4
  br label %13

79:                                               ; preds = %13
  ret i32 0
}

declare dso_local i32 @gets(...) #1

; Function Attrs: nounwind readonly
declare dso_local i32 @atoi(i8*) #2

; Function Attrs: argmemonly nounwind willreturn
declare void @llvm.memset.p0i8.i64(i8* nocapture writeonly, i8, i64, i1 immarg) #3

declare dso_local i32 @printf(i8*, ...) #1


!llvm.module.flags = !{!0}
!llvm.ident = !{!1}

!0 = !{i32 1, !"wchar_size", i32 4}
!1 = !{!"clang version 10.0.0-4ubuntu1 "}
