; ModuleID = 'source-C-CXX/32/2520.c'
source_filename = "source-C-CXX/32/2520.c"
target datalayout = "e-m:e-p270:32:32-p271:32:32-p272:64:64-i64:64-f80:128-n8:16:32:64-S128"
target triple = "x86_64-pc-linux-gnu"

; Function Attrs: nounwind sspstrong uwtable
define dso_local i32 @main() local_unnamed_addr #0 {
  %1 = alloca [256 x i8], align 16
  %2 = alloca [256 x i8], align 16
  %3 = getelementptr inbounds [256 x i8], [256 x i8]* %1, i64 0, i64 0
  call void @llvm.lifetime.start.p0i8(i64 256, i8* nonnull %3) #6
  %4 = call i32 (i8*, ...) bitcast (i32 (...)* @gets to i32 (i8*, ...)*)(i8* nonnull %3) #6
  %5 = call i64 @strtol(i8* nocapture nonnull %3, i8** null, i32 10) #6
  %6 = trunc i64 %5 to i32
  %7 = getelementptr inbounds [256 x i8], [256 x i8]* %2, i64 0, i64 0
  %8 = icmp slt i32 %6, 1
  br i1 %8, label %29, label %9

9:                                                ; preds = %0, %25
  %10 = phi i32 [ %27, %25 ], [ 1, %0 ]
  %11 = call i32 (i8*, ...) bitcast (i32 (...)* @gets to i32 (i8*, ...)*)(i8* nonnull %3) #6
  call void @llvm.lifetime.start.p0i8(i64 256, i8* nonnull %7) #6
  call void @llvm.memset.p0i8.i64(i8* noundef nonnull align 16 dereferenceable(256) %7, i8 0, i64 256, i1 false)
  br label %12

12:                                               ; preds = %22, %9
  %13 = phi i8* [ %3, %9 ], [ %24, %22 ]
  %14 = phi i8* [ %7, %9 ], [ %23, %22 ]
  %15 = load i8, i8* %13, align 1, !tbaa !5
  switch i8 %15, label %22 [
    i8 0, label %25
    i8 65, label %19
    i8 84, label %16
    i8 71, label %17
    i8 67, label %18
  ]

16:                                               ; preds = %12
  br label %19

17:                                               ; preds = %12
  br label %19

18:                                               ; preds = %12
  br label %19

19:                                               ; preds = %12, %16, %18, %17
  %20 = phi i8 [ 67, %17 ], [ 71, %18 ], [ 65, %16 ], [ 84, %12 ]
  store i8 %20, i8* %14, align 1, !tbaa !5
  %21 = getelementptr inbounds i8, i8* %14, i64 1
  br label %22

22:                                               ; preds = %19, %12
  %23 = phi i8* [ %14, %12 ], [ %21, %19 ]
  %24 = getelementptr inbounds i8, i8* %13, i64 1
  br label %12, !llvm.loop !8

25:                                               ; preds = %12
  %26 = call i32 @puts(i8* nonnull %7)
  call void @llvm.lifetime.end.p0i8(i64 256, i8* nonnull %7) #6
  %27 = add nuw i32 %10, 1
  %28 = icmp eq i32 %10, %6
  br i1 %28, label %29, label %9, !llvm.loop !10

29:                                               ; preds = %25, %0
  call void @llvm.lifetime.end.p0i8(i64 256, i8* nonnull %3) #6
  ret i32 0
}

; Function Attrs: argmemonly mustprogress nofree nosync nounwind willreturn
declare void @llvm.lifetime.start.p0i8(i64 immarg, i8* nocapture) #1

declare i32 @gets(...) local_unnamed_addr #2

; Function Attrs: argmemonly mustprogress nofree nounwind willreturn writeonly
declare void @llvm.memset.p0i8.i64(i8* nocapture writeonly, i8, i64, i1 immarg) #3

; Function Attrs: argmemonly mustprogress nofree nosync nounwind willreturn
declare void @llvm.lifetime.end.p0i8(i64 immarg, i8* nocapture) #1

; Function Attrs: mustprogress nofree nounwind willreturn
declare i64 @strtol(i8* readonly, i8** nocapture, i32) local_unnamed_addr #4

; Function Attrs: nofree nounwind
declare noundef i32 @puts(i8* nocapture noundef readonly) local_unnamed_addr #5


!llvm.module.flags = !{!0, !1, !2, !3}
!llvm.ident = !{!4}

!0 = !{i32 1, !"wchar_size", i32 4}
!1 = !{i32 7, !"PIC Level", i32 2}
!2 = !{i32 7, !"PIE Level", i32 2}
!3 = !{i32 7, !"uwtable", i32 1}
!4 = !{!"clang version 13.0.0"}
!5 = !{!6, !6, i64 0}
!6 = !{!"omnipotent char", !7, i64 0}
!7 = !{!"Simple C/C++ TBAA"}
!8 = distinct !{!8, !9}
!9 = !{!"llvm.loop.mustprogress"}
!10 = distinct !{!10, !9}
